target datalayout = "e-m:e-p270:32:32-p271:32:32-p272:64:64-i64:64-i128:128-f80:128-n8:16:32:64-S128"
target triple = "x86_64-pc-linux-gnu"

%class.MemRegion = type { ptr, i64 }
%class.CollectedHeap = type { ptr, ptr, i64, i64, %class.SoftRefPolicy, %class.MemRegion, i8, i64, i32, i32, i32, i32, ptr, ptr }
%class.SoftRefPolicy = type { i8, i8 }
%class.MutexLocker = type { %class.MutexLockerImpl }
%class.MutexLockerImpl = type { ptr }
%class.VM_GC_Operation.base = type <{ %class.VM_GC_Sync_Operation, i32, i32, i8, i8, [2 x i8], i32, i8 }>
%class.VM_GC_Sync_Operation = type { %class.VM_Operation }
%class.VM_Operation = type { ptr, ptr }
%class.VM_GC_Operation = type <{ %class.VM_GC_Sync_Operation, i32, i32, i8, i8, [2 x i8], i32, i8, [7 x i8] }>
%class.VM_SerialGCCollect = type { %class.VM_GC_Operation.base, [7 x i8] }

@Heap_lock = external global ptr, align 8
@_ZN8GCLocker9_needs_gcE = external global i8, align 1
@_ZN8GCLocker15_jni_lock_countE = external global i32, align 4
@_ZTV18VM_SerialGCCollect = external unnamed_addr constant { [13 x ptr] }, align 8
@_ZTV15VM_GC_Operation = external unnamed_addr constant { [13 x ptr] }, align 8
@_ZTV20VM_GC_Sync_Operation = external unnamed_addr constant { [12 x ptr] }, align 8
@_ZTV12VM_Operation = external unnamed_addr constant { [12 x ptr] }, align 8

; Function Attrs: mustprogress nounwind uwtable
define linkonce_odr hidden void @_ZN12VM_OperationC2Ev(ptr noundef nonnull align 8 dereferenceable(16) %0) unnamed_addr #1 comdat align 2 {
  %2 = alloca ptr, align 8
  store ptr %0, ptr %2, align 8
  %3 = load ptr, ptr %2, align 8
  store ptr getelementptr inbounds inrange(-16, 80) ({ [12 x ptr] }, ptr @_ZTV12VM_Operation, i32 0, i32 0, i32 2), ptr %3, align 8
  %4 = getelementptr inbounds %class.VM_Operation, ptr %3, i32 0, i32 1
  store ptr null, ptr %4, align 8
  ret void
}

; Function Attrs: mustprogress nounwind uwtable
define linkonce_odr hidden void @_ZN8GCLocker21verify_critical_countEv() #1 comdat align 2 {
  ret void
}

; Function Attrs: mustprogress nounwind uwtable
define linkonce_odr hidden void @_ZN20VM_GC_Sync_OperationC2Ev(ptr noundef nonnull align 8 dereferenceable(16) %0) unnamed_addr #1 comdat align 2 {
  %2 = alloca ptr, align 8
  store ptr %0, ptr %2, align 8
  %3 = load ptr, ptr %2, align 8
  call void @_ZN12VM_OperationC2Ev(ptr noundef nonnull align 8 dereferenceable(16) %3)
  store ptr getelementptr inbounds inrange(-16, 80) ({ [12 x ptr] }, ptr @_ZTV20VM_GC_Sync_Operation, i32 0, i32 0, i32 2), ptr %3, align 8
  ret void
}

; Function Attrs: mustprogress nounwind uwtable
define linkonce_odr hidden noundef zeroext i1 @_ZN8GCLocker18is_active_internalEv() #1 comdat align 2 {
  call void @_ZN8GCLocker21verify_critical_countEv()
  %1 = load volatile i32, ptr @_ZN8GCLocker15_jni_lock_countE, align 4
  %2 = icmp sgt i32 %1, 0
  ret i1 %2
}

; Function Attrs: mustprogress nounwind uwtable
define linkonce_odr hidden noundef zeroext i1 @_ZN8GCLocker8needs_gcEv() #1 comdat align 2 {
  %1 = load volatile i8, ptr @_ZN8GCLocker9_needs_gcE, align 1
  %2 = trunc i8 %1 to i1
  ret i1 %2
}

; Function Attrs: mustprogress nounwind uwtable
define linkonce_odr hidden noundef zeroext i1 @_ZN7GCCause30is_serviceability_requested_gcENS_5CauseE(i32 noundef %0) #1 comdat align 2 {
  %2 = alloca i32, align 4
  store i32 %0, ptr %2, align 4
  %3 = load i32, ptr %2, align 4
  %4 = icmp eq i32 %3, 4
  br i1 %4, label %11, label %5

5:                                                ; preds = %1
  %6 = load i32, ptr %2, align 4
  %7 = icmp eq i32 %6, 6
  br i1 %7, label %11, label %8

8:                                                ; preds = %5
  %9 = load i32, ptr %2, align 4
  %10 = icmp eq i32 %9, 7
  br label %11

11:                                               ; preds = %8, %5, %1
  %12 = phi i1 [ true, %5 ], [ true, %1 ], [ %10, %8 ]
  ret i1 %12
}

; Function Attrs: mustprogress nounwind uwtable
define linkonce_odr hidden noundef zeroext i1 @_ZN7GCCause20is_user_requested_gcENS_5CauseE(i32 noundef %0) #1 comdat align 2 {
  %2 = alloca i32, align 4
  store i32 %0, ptr %2, align 4
  %3 = load i32, ptr %2, align 4
  %4 = icmp eq i32 %3, 0
  br i1 %4, label %8, label %5

5:                                                ; preds = %1
  %6 = load i32, ptr %2, align 4
  %7 = icmp eq i32 %6, 23
  br label %8

8:                                                ; preds = %5, %1
  %9 = phi i1 [ true, %1 ], [ %7, %5 ]
  ret i1 %9
}

; Function Attrs: mustprogress nounwind uwtable
define linkonce_odr hidden void @_ZN15VM_GC_OperationC2EjN7GCCause5CauseEjb(ptr noundef nonnull align 8 dereferenceable(33) %0, i32 noundef %1, i32 noundef %2, i32 noundef %3, i1 noundef zeroext %4) unnamed_addr #1 comdat align 2 {
  %6 = alloca ptr, align 8
  %7 = alloca i32, align 4
  %8 = alloca i32, align 4
  %9 = alloca i32, align 4
  %10 = alloca i8, align 1
  store ptr %0, ptr %6, align 8
  store i32 %1, ptr %7, align 4
  store i32 %2, ptr %8, align 4
  store i32 %3, ptr %9, align 4
  %11 = zext i1 %4 to i8
  store i8 %11, ptr %10, align 1
  %12 = load ptr, ptr %6, align 8
  call void @_ZN20VM_GC_Sync_OperationC2Ev(ptr noundef nonnull align 8 dereferenceable(16) %12)
  store ptr getelementptr inbounds inrange(-16, 88) ({ [13 x ptr] }, ptr @_ZTV15VM_GC_Operation, i32 0, i32 0, i32 2), ptr %12, align 8
  %13 = load i8, ptr %10, align 1
  %14 = trunc i8 %13 to i1
  %15 = getelementptr inbounds %class.VM_GC_Operation, ptr %12, i32 0, i32 3
  %16 = zext i1 %14 to i8
  store i8 %16, ptr %15, align 8
  %17 = getelementptr inbounds %class.VM_GC_Operation, ptr %12, i32 0, i32 4
  store i8 0, ptr %17, align 1
  %18 = load i32, ptr %7, align 4
  %19 = getelementptr inbounds %class.VM_GC_Operation, ptr %12, i32 0, i32 1
  store i32 %18, ptr %19, align 8
  %20 = load i32, ptr %8, align 4
  %21 = getelementptr inbounds %class.VM_GC_Operation, ptr %12, i32 0, i32 6
  store i32 %20, ptr %21, align 4
  %22 = getelementptr inbounds %class.VM_GC_Operation, ptr %12, i32 0, i32 7
  store i8 0, ptr %22, align 8
  %23 = load i32, ptr %9, align 4
  %24 = getelementptr inbounds %class.VM_GC_Operation, ptr %12, i32 0, i32 2
  store i32 %23, ptr %24, align 4
  ret void
}

; Function Attrs: mustprogress nounwind uwtable
define linkonce_odr hidden void @_ZN15MutexLockerImplD2Ev(ptr noundef nonnull align 8 dereferenceable(8) %0) unnamed_addr #1 comdat align 2 {
  %2 = alloca ptr, align 8
  store ptr %0, ptr %2, align 8
  %3 = load ptr, ptr %2, align 8
  %4 = getelementptr inbounds %class.MutexLockerImpl, ptr %3, i32 0, i32 0
  %5 = load ptr, ptr %4, align 8
  %6 = icmp ne ptr %5, null
  br i1 %6, label %7, label %10

7:                                                ; preds = %1
  %8 = getelementptr inbounds %class.MutexLockerImpl, ptr %3, i32 0, i32 0
  %9 = load ptr, ptr %8, align 8
  call void @_ZN5Mutex6unlockEv(ptr noundef nonnull align 8 dereferenceable(104) %9)
  br label %10

10:                                               ; preds = %7, %1
  ret void
}

; Function Attrs: mustprogress nounwind uwtable
define linkonce_odr hidden void @_ZN15MutexLockerImplC2EP5MutexNS0_18SafepointCheckFlagE(ptr noundef nonnull align 8 dereferenceable(8) %0, ptr noundef %1, i32 noundef %2) unnamed_addr #1 comdat align 2 {
  %4 = alloca ptr, align 8
  %5 = alloca ptr, align 8
  %6 = alloca i32, align 4
  %7 = alloca i8, align 1
  store ptr %0, ptr %4, align 8
  store ptr %1, ptr %5, align 8
  store i32 %2, ptr %6, align 4
  %8 = load ptr, ptr %4, align 8
  %9 = getelementptr inbounds %class.MutexLockerImpl, ptr %8, i32 0, i32 0
  %10 = load ptr, ptr %5, align 8
  store ptr %10, ptr %9, align 8
  %11 = load i32, ptr %6, align 4
  %12 = icmp eq i32 %11, 1
  %13 = zext i1 %12 to i8
  store i8 %13, ptr %7, align 1
  %14 = getelementptr inbounds %class.MutexLockerImpl, ptr %8, i32 0, i32 0
  %15 = load ptr, ptr %14, align 8
  %16 = icmp ne ptr %15, null
  br i1 %16, label %17, label %27

17:                                               ; preds = %3
  %18 = load i8, ptr %7, align 1
  %19 = trunc i8 %18 to i1
  br i1 %19, label %20, label %23

20:                                               ; preds = %17
  %21 = getelementptr inbounds %class.MutexLockerImpl, ptr %8, i32 0, i32 0
  %22 = load ptr, ptr %21, align 8
  call void @_ZN5Mutex28lock_without_safepoint_checkEv(ptr noundef nonnull align 8 dereferenceable(104) %22)
  br label %26

23:                                               ; preds = %17
  %24 = getelementptr inbounds %class.MutexLockerImpl, ptr %8, i32 0, i32 0
  %25 = load ptr, ptr %24, align 8
  call void @_ZN5Mutex4lockEv(ptr noundef nonnull align 8 dereferenceable(104) %25)
  br label %26

26:                                               ; preds = %23, %20
  br label %27

27:                                               ; preds = %26, %3
  ret void
}

; Function Attrs: mustprogress nounwind uwtable
define linkonce_odr hidden void @_ZN18VM_SerialGCCollectD2Ev(ptr noundef nonnull align 8 dereferenceable(33) %0) unnamed_addr #1 comdat align 2 {
  %2 = alloca ptr, align 8
  store ptr %0, ptr %2, align 8
  %3 = load ptr, ptr %2, align 8
  call void @_ZN15VM_GC_OperationD2Ev(ptr noundef nonnull align 8 dereferenceable(33) %3) #10
  ret void
}

; Function Attrs: mustprogress nounwind uwtable
define linkonce_odr hidden noundef zeroext i1 @_ZN8GCLocker22is_active_and_needs_gcEv() #1 comdat align 2 {
  %1 = call noundef zeroext i1 @_ZN8GCLocker8needs_gcEv()
  br i1 %1, label %2, label %4

2:                                                ; preds = %0
  %3 = call noundef zeroext i1 @_ZN8GCLocker18is_active_internalEv()
  br label %4

4:                                                ; preds = %2, %0
  %5 = phi i1 [ false, %0 ], [ %3, %2 ]
  ret i1 %5
}

; Function Attrs: mustprogress nounwind uwtable
define linkonce_odr hidden noundef zeroext i1 @_ZN7GCCause19is_explicit_full_gcENS_5CauseE(i32 noundef %0) #1 comdat align 2 {
  %2 = alloca i32, align 4
  store i32 %0, ptr %2, align 4
  %3 = load i32, ptr %2, align 4
  %4 = call noundef zeroext i1 @_ZN7GCCause20is_user_requested_gcENS_5CauseE(i32 noundef %3)
  br i1 %4, label %11, label %5

5:                                                ; preds = %1
  %6 = load i32, ptr %2, align 4
  %7 = call noundef zeroext i1 @_ZN7GCCause30is_serviceability_requested_gcENS_5CauseE(i32 noundef %6)
  br i1 %7, label %11, label %8

8:                                                ; preds = %5
  %9 = load i32, ptr %2, align 4
  %10 = icmp eq i32 %9, 9
  br label %11

11:                                               ; preds = %8, %5, %1
  %12 = phi i1 [ true, %5 ], [ true, %1 ], [ %10, %8 ]
  ret i1 %12
}

; Function Attrs: mustprogress nounwind uwtable
define linkonce_odr hidden void @_ZN18VM_SerialGCCollectC2EbjjN7GCCause5CauseE(ptr noundef nonnull align 8 dereferenceable(33) %0, i1 noundef zeroext %1, i32 noundef %2, i32 noundef %3, i32 noundef %4) unnamed_addr #1 comdat align 2 {
  %6 = alloca ptr, align 8
  %7 = alloca i8, align 1
  %8 = alloca i32, align 4
  %9 = alloca i32, align 4
  %10 = alloca i32, align 4
  store ptr %0, ptr %6, align 8
  %11 = zext i1 %1 to i8
  store i8 %11, ptr %7, align 1
  store i32 %2, ptr %8, align 4
  store i32 %3, ptr %9, align 4
  store i32 %4, ptr %10, align 4
  %12 = load ptr, ptr %6, align 8
  %13 = load i32, ptr %8, align 4
  %14 = load i32, ptr %10, align 4
  %15 = load i32, ptr %9, align 4
  %16 = load i8, ptr %7, align 1
  %17 = trunc i8 %16 to i1
  call void @_ZN15VM_GC_OperationC2EjN7GCCause5CauseEjb(ptr noundef nonnull align 8 dereferenceable(33) %12, i32 noundef %13, i32 noundef %14, i32 noundef %15, i1 noundef zeroext %17)
  store ptr getelementptr inbounds inrange(-16, 88) ({ [13 x ptr] }, ptr @_ZTV18VM_SerialGCCollect, i32 0, i32 0, i32 2), ptr %12, align 8
  ret void
}

; Function Attrs: mustprogress nounwind uwtable
define linkonce_odr hidden void @_ZN11MutexLockerD2Ev(ptr noundef nonnull align 8 dereferenceable(8) %0) unnamed_addr #1 comdat align 2 {
  %2 = alloca ptr, align 8
  store ptr %0, ptr %2, align 8
  %3 = load ptr, ptr %2, align 8
  call void @_ZN15MutexLockerImplD2Ev(ptr noundef nonnull align 8 dereferenceable(8) %3) #10
  ret void
}

; Function Attrs: mustprogress nounwind uwtable
define linkonce_odr hidden noundef i32 @_ZNK13CollectedHeap22total_full_collectionsEv(ptr noundef nonnull align 8 dereferenceable(104) %0) #1 comdat align 2 {
  %2 = alloca ptr, align 8
  store ptr %0, ptr %2, align 8
  %3 = load ptr, ptr %2, align 8
  %4 = getelementptr inbounds %class.CollectedHeap, ptr %3, i32 0, i32 9
  %5 = load i32, ptr %4, align 4
  ret i32 %5
}

; Function Attrs: mustprogress nounwind uwtable
define linkonce_odr hidden noundef i32 @_ZNK13CollectedHeap17total_collectionsEv(ptr noundef nonnull align 8 dereferenceable(104) %0) #1 comdat align 2 {
  %2 = alloca ptr, align 8
  store ptr %0, ptr %2, align 8
  %3 = load ptr, ptr %2, align 8
  %4 = getelementptr inbounds %class.CollectedHeap, ptr %3, i32 0, i32 8
  %5 = load i32, ptr %4, align 8
  ret i32 %5
}

; Function Attrs: mustprogress nounwind uwtable
define linkonce_odr hidden void @_ZN11MutexLockerC2EP5MutexNS0_18SafepointCheckFlagE(ptr noundef nonnull align 8 dereferenceable(8) %0, ptr noundef %1, i32 noundef %2) unnamed_addr #1 comdat align 2 {
  %4 = alloca ptr, align 8
  %5 = alloca ptr, align 8
  %6 = alloca i32, align 4
  store ptr %0, ptr %4, align 8
  store ptr %1, ptr %5, align 8
  store i32 %2, ptr %6, align 4
  %7 = load ptr, ptr %4, align 8
  %8 = load ptr, ptr %5, align 8
  %9 = load i32, ptr %6, align 4
  call void @_ZN15MutexLockerImplC2EP5MutexNS0_18SafepointCheckFlagE(ptr noundef nonnull align 8 dereferenceable(8) %7, ptr noundef %8, i32 noundef %9)
  ret void
}

; Function Attrs: mustprogress nounwind uwtable
define hidden void @_ZN10SerialHeap7collectEN7GCCause5CauseE(ptr noundef nonnull align 8 dereferenceable(192) %0, i32 noundef %1) unnamed_addr #1 align 2 {
  %3 = alloca ptr, align 8
  %4 = alloca i32, align 4
  %5 = alloca i32, align 4
  %6 = alloca i32, align 4
  %7 = alloca %class.MutexLocker, align 8
  %8 = alloca i8, align 1
  %9 = alloca %class.VM_SerialGCCollect, align 8
  %10 = alloca i32, align 4
  %11 = alloca %class.MutexLocker, align 8
  store ptr %0, ptr %3, align 8
  store i32 %1, ptr %4, align 4
  %12 = load ptr, ptr %3, align 8
  %13 = load ptr, ptr @Heap_lock, align 8
  call void @_ZN11MutexLockerC2EP5MutexNS0_18SafepointCheckFlagE(ptr noundef nonnull align 8 dereferenceable(8) %7, ptr noundef %13, i32 noundef 0)
  %14 = call noundef i32 @_ZNK13CollectedHeap17total_collectionsEv(ptr noundef nonnull align 8 dereferenceable(104) %12)
  store i32 %14, ptr %5, align 4
  %15 = call noundef i32 @_ZNK13CollectedHeap22total_full_collectionsEv(ptr noundef nonnull align 8 dereferenceable(104) %12)
  store i32 %15, ptr %6, align 4
  call void @_ZN11MutexLockerD2Ev(ptr noundef nonnull align 8 dereferenceable(8) %7) #10
  %16 = load i32, ptr %4, align 4
  %17 = load i32, ptr %5, align 4
  %18 = call noundef zeroext i1 @_ZN8GCLocker14should_discardEN7GCCause5CauseEj(i32 noundef %16, i32 noundef %17)
  br i1 %18, label %19, label %20

19:                                               ; preds = %2
  br label %55

20:                                               ; preds = %2
  %21 = load i32, ptr %4, align 4
  %22 = icmp eq i32 %21, 8
  br i1 %22, label %26, label %23

23:                                               ; preds = %20
  %24 = load i32, ptr %4, align 4
  %25 = icmp eq i32 %24, 5
  br label %26

26:                                               ; preds = %23, %20
  %27 = phi i1 [ true, %20 ], [ %25, %23 ]
  %28 = zext i1 %27 to i8
  store i8 %28, ptr %8, align 1
  br label %29

29:                                               ; preds = %54, %26
  %30 = load i8, ptr %8, align 1
  %31 = trunc i8 %30 to i1
  %32 = xor i1 %31, true
  %33 = load i32, ptr %5, align 4
  %34 = load i32, ptr %6, align 4
  %35 = load i32, ptr %4, align 4
  call void @_ZN18VM_SerialGCCollectC2EbjjN7GCCause5CauseE(ptr noundef nonnull align 8 dereferenceable(33) %9, i1 noundef zeroext %32, i32 noundef %33, i32 noundef %34, i32 noundef %35)
  call void @_ZN8VMThread7executeEP12VM_Operation(ptr noundef %9)
  %36 = load i32, ptr %4, align 4
  %37 = call noundef zeroext i1 @_ZN7GCCause19is_explicit_full_gcENS_5CauseE(i32 noundef %36)
  br i1 %37, label %39, label %38

38:                                               ; preds = %29
  store i32 1, ptr %10, align 4
  br label %52

39:                                               ; preds = %29
  %40 = load ptr, ptr @Heap_lock, align 8
  call void @_ZN11MutexLockerC2EP5MutexNS0_18SafepointCheckFlagE(ptr noundef nonnull align 8 dereferenceable(8) %11, ptr noundef %40, i32 noundef 0)
  %41 = load i32, ptr %6, align 4
  %42 = call noundef i32 @_ZNK13CollectedHeap22total_full_collectionsEv(ptr noundef nonnull align 8 dereferenceable(104) %12)
  %43 = icmp ne i32 %41, %42
  br i1 %43, label %44, label %45

44:                                               ; preds = %39
  store i32 1, ptr %10, align 4
  br label %46

45:                                               ; preds = %39
  store i32 0, ptr %10, align 4
  br label %46

46:                                               ; preds = %45, %44
  call void @_ZN11MutexLockerD2Ev(ptr noundef nonnull align 8 dereferenceable(8) %11) #10
  %47 = load i32, ptr %10, align 4
  switch i32 %47, label %52 [
    i32 0, label %48
  ]

48:                                               ; preds = %46
  %49 = call noundef zeroext i1 @_ZN8GCLocker22is_active_and_needs_gcEv()
  br i1 %49, label %50, label %51

50:                                               ; preds = %48
  call void @_ZN8GCLocker17stall_until_clearEv()
  br label %51

51:                                               ; preds = %50, %48
  store i32 0, ptr %10, align 4
  br label %52

52:                                               ; preds = %51, %46, %38
  call void @_ZN18VM_SerialGCCollectD2Ev(ptr noundef nonnull align 8 dereferenceable(33) %9) #10
  %53 = load i32, ptr %10, align 4
  switch i32 %53, label %56 [
    i32 0, label %54
    i32 1, label %55
  ]

54:                                               ; preds = %52
  br label %29, !llvm.loop !13

55:                                               ; preds = %52, %19
  ret void

56:                                               ; preds = %52
  unreachable
}