; Function Attrs: mustprogress nounwind uwtable
define hidden void @_ZN10SerialHeap7collectEN7GCCause5CauseE(ptr nocapture noundef nonnull readonly align 8 dereferenceable(192) %0, i32 noundef %1) unnamed_addr #0 align 2 {
  %3 = alloca %class.VM_SerialGCCollect, align 8
  %4 = load ptr, ptr @Heap_lock, align 8
  %.not.i.i = icmp eq ptr %4, null
  br i1 %.not.i.i, label %_ZN11MutexLockerC2EP5MutexNS0_18SafepointCheckFlagE.exit.thread, label %9

_ZN11MutexLockerC2EP5MutexNS0_18SafepointCheckFlagE.exit.thread: ; preds = %2
  %5 = getelementptr inbounds i8, ptr %0, i64 72
  %6 = load i32, ptr %5, align 8
  %7 = getelementptr inbounds i8, ptr %0, i64 76
  %8 = load i32, ptr %7, align 4
  br label %_ZN11MutexLockerD2Ev.exit

9:                                                ; preds = %2
  tail call void @_ZN5Mutex4lockEv(ptr noundef nonnull align 8 dereferenceable(104) %4) #16
  %10 = getelementptr inbounds i8, ptr %0, i64 72
  %11 = load i32, ptr %10, align 8
  %12 = getelementptr inbounds i8, ptr %0, i64 76
  %13 = load i32, ptr %12, align 4
  tail call void @_ZN5Mutex6unlockEv(ptr noundef nonnull align 8 dereferenceable(104) %4) #16
  br label %_ZN11MutexLockerD2Ev.exit

_ZN11MutexLockerD2Ev.exit:                        ; preds = %_ZN11MutexLockerC2EP5MutexNS0_18SafepointCheckFlagE.exit.thread, %9
  %14 = phi i32 [ %8, %_ZN11MutexLockerC2EP5MutexNS0_18SafepointCheckFlagE.exit.thread ], [ %13, %9 ]
  %15 = phi ptr [ %7, %_ZN11MutexLockerC2EP5MutexNS0_18SafepointCheckFlagE.exit.thread ], [ %12, %9 ]
  %16 = phi i32 [ %6, %_ZN11MutexLockerC2EP5MutexNS0_18SafepointCheckFlagE.exit.thread ], [ %11, %9 ]
  %17 = tail call noundef zeroext i1 @_ZN8GCLocker14should_discardEN7GCCause5CauseEj(i32 noundef %1, i32 noundef %16) #16
  br i1 %17, label %38, label %18

18:                                               ; preds = %_ZN11MutexLockerD2Ev.exit
  %19 = icmp ne i32 %1, 8
  %20 = icmp ne i32 %1, 5
  %.not13 = and i1 %19, %20
  %21 = zext i1 %.not13 to i8
  %22 = getelementptr inbounds i8, ptr %3, i64 8
  %23 = getelementptr inbounds i8, ptr %3, i64 24
  %24 = getelementptr inbounds i8, ptr %3, i64 25
  %25 = getelementptr inbounds i8, ptr %3, i64 16
  %26 = getelementptr inbounds i8, ptr %3, i64 28
  %27 = getelementptr inbounds i8, ptr %3, i64 32
  %28 = getelementptr inbounds i8, ptr %3, i64 20
  switch i32 %1, label %.split [
    i32 23, label %_ZN7GCCause19is_explicit_full_gcENS_5CauseE.exit.thread.us.preheader
    i32 0, label %_ZN7GCCause19is_explicit_full_gcENS_5CauseE.exit.thread.us.preheader
    i32 9, label %_ZN7GCCause19is_explicit_full_gcENS_5CauseE.exit.thread.us.preheader
    i32 7, label %_ZN7GCCause19is_explicit_full_gcENS_5CauseE.exit.thread.us.preheader
    i32 6, label %_ZN7GCCause19is_explicit_full_gcENS_5CauseE.exit.thread.us.preheader
    i32 4, label %_ZN7GCCause19is_explicit_full_gcENS_5CauseE.exit.thread.us.preheader
  ]

_ZN7GCCause19is_explicit_full_gcENS_5CauseE.exit.thread.us.preheader: ; preds = %18, %18, %18, %18, %18, %18
  br label %_ZN7GCCause19is_explicit_full_gcENS_5CauseE.exit.thread.us

_ZN7GCCause19is_explicit_full_gcENS_5CauseE.exit.thread.us: ; preds = %_ZN7GCCause19is_explicit_full_gcENS_5CauseE.exit.thread.us.preheader, %_ZN8GCLocker22is_active_and_needs_gcEv.exit.thread.us
  store ptr null, ptr %22, align 8
  store i8 %21, ptr %23, align 8
  store i8 0, ptr %24, align 1
  store i32 %16, ptr %25, align 8
  store i32 %1, ptr %26, align 4
  store i8 0, ptr %27, align 8
  store i32 %14, ptr %28, align 4
  store ptr getelementptr inbounds inrange(-16, 88) (i8, ptr @_ZTV18VM_SerialGCCollect, i64 16), ptr %3, align 8
  call void @_ZN8VMThread7executeEP12VM_Operation(ptr noundef nonnull %3) #16
  %29 = load ptr, ptr @Heap_lock, align 8
  %.not.i.i15.us = icmp eq ptr %29, null
  br i1 %.not.i.i15.us, label %_ZN11MutexLockerC2EP5MutexNS0_18SafepointCheckFlagE.exit16.thread.us, label %_ZN11MutexLockerD2Ev.exit18.us

_ZN11MutexLockerD2Ev.exit18.us:                   ; preds = %_ZN7GCCause19is_explicit_full_gcENS_5CauseE.exit.thread.us
  call void @_ZN5Mutex4lockEv(ptr noundef nonnull align 8 dereferenceable(104) %29) #16
  %30 = load i32, ptr %15, align 4
  %.not.us = icmp eq i32 %14, %30
  call void @_ZN5Mutex6unlockEv(ptr noundef nonnull align 8 dereferenceable(104) %29) #16
  br i1 %.not.us, label %32, label %.thread

_ZN11MutexLockerC2EP5MutexNS0_18SafepointCheckFlagE.exit16.thread.us: ; preds = %_ZN7GCCause19is_explicit_full_gcENS_5CauseE.exit.thread.us
  %31 = load i32, ptr %15, align 4
  %.not20.us = icmp eq i32 %14, %31
  br i1 %.not20.us, label %32, label %.thread

32:                                               ; preds = %_ZN11MutexLockerC2EP5MutexNS0_18SafepointCheckFlagE.exit16.thread.us, %_ZN11MutexLockerD2Ev.exit18.us
  %33 = load volatile i8, ptr @_ZN8GCLocker9_needs_gcE, align 1
  %34 = trunc i8 %33 to i1
  br i1 %34, label %_ZN8GCLocker22is_active_and_needs_gcEv.exit.us, label %_ZN8GCLocker22is_active_and_needs_gcEv.exit.thread.us

_ZN8GCLocker22is_active_and_needs_gcEv.exit.us:   ; preds = %32
  %35 = load volatile i32, ptr @_ZN8GCLocker15_jni_lock_countE, align 4
  %36 = icmp sgt i32 %35, 0
  br i1 %36, label %37, label %_ZN8GCLocker22is_active_and_needs_gcEv.exit.thread.us

37:                                               ; preds = %_ZN8GCLocker22is_active_and_needs_gcEv.exit.us
  call void @_ZN8GCLocker17stall_until_clearEv() #16
  br label %_ZN8GCLocker22is_active_and_needs_gcEv.exit.thread.us

_ZN8GCLocker22is_active_and_needs_gcEv.exit.thread.us: ; preds = %37, %_ZN8GCLocker22is_active_and_needs_gcEv.exit.us, %32
  call void @_ZN15VM_GC_OperationD2Ev(ptr noundef nonnull align 8 dereferenceable(33) %3) #16
  br label %_ZN7GCCause19is_explicit_full_gcENS_5CauseE.exit.thread.us

.split:                                           ; preds = %18
  store ptr null, ptr %22, align 8
  store i8 %21, ptr %23, align 8
  store i8 0, ptr %24, align 1
  store i32 %16, ptr %25, align 8
  store i32 %1, ptr %26, align 4
  store i8 0, ptr %27, align 8
  store i32 %14, ptr %28, align 4
  store ptr getelementptr inbounds inrange(-16, 88) (i8, ptr @_ZTV18VM_SerialGCCollect, i64 16), ptr %3, align 8
  call void @_ZN8VMThread7executeEP12VM_Operation(ptr noundef nonnull %3) #16
  br label %.thread

.thread:                                          ; preds = %_ZN11MutexLockerD2Ev.exit18.us, %_ZN11MutexLockerC2EP5MutexNS0_18SafepointCheckFlagE.exit16.thread.us, %.split
  call void @_ZN15VM_GC_OperationD2Ev(ptr noundef nonnull align 8 dereferenceable(33) %3) #16
  br label %38

38:                                               ; preds = %.thread, %_ZN11MutexLockerD2Ev.exit
  ret void
}